; Function Attrs: mustprogress nounwind uwtable
define hidden void @_ZN16SystemDictionary21post_class_load_eventEP14EventClassLoadPK13InstanceKlassPK15ClassLoaderData(ptr noundef %0, ptr noundef %1, ptr noundef %2) local_unnamed_addr #0 align 2 {
  %4 = getelementptr inbounds i8, ptr %0, i64 24
  store ptr %1, ptr %4, align 8
  %5 = getelementptr inbounds i8, ptr %1, i64 152
  %6 = load ptr, ptr %5, align 8
  %7 = getelementptr inbounds i8, ptr %0, i64 32
  store ptr %6, ptr %7, align 8
  %8 = getelementptr inbounds i8, ptr %0, i64 40
  store ptr %2, ptr %8, align 8
  %9 = getelementptr inbounds i8, ptr %0, i64 18
  %10 = load i8, ptr %9, align 2
  %11 = trunc i8 %10 to i1
  br i1 %11, label %12, label %16

12:                                               ; preds = %3
  %13 = getelementptr inbounds i8, ptr %0, i64 17
  %14 = load i8, ptr %13, align 1
  %15 = trunc i8 %14 to i1
  br i1 %15, label %36, label %_ZN8JfrEventI14EventClassLoadE6commitEv.exit

16:                                               ; preds = %3
  %17 = load i8, ptr getelementptr inbounds (i8, ptr @_ZN15JfrEventSetting19_jvm_event_settingsE, i64 545), align 1
  %.not.i.i = icmp eq i8 %17, 0
  br i1 %.not.i.i, label %_ZN8JfrEventI14EventClassLoadE6commitEv.exit, label %18

18:                                               ; preds = %16
  %19 = load i64, ptr %0, align 8
  %20 = icmp eq i64 %19, 0
  br i1 %20, label %21, label %23

21:                                               ; preds = %18
  %22 = tail call noundef i64 @_ZN33FastUnorderedElapsedCounterSource3nowEv() #14
  store i64 %22, ptr %0, align 8
  %.phi.trans.insert.i.i.i = getelementptr inbounds i8, ptr %0, i64 8
  %.pre.i.i.i = load i64, ptr %.phi.trans.insert.i.i.i, align 8
  br label %_ZN8JfrEventI14EventClassLoadE8evaluateEv.exit.i.i

23:                                               ; preds = %18
  %24 = getelementptr inbounds i8, ptr %0, i64 8
  %25 = load i64, ptr %24, align 8
  %26 = icmp eq i64 %25, 0
  br i1 %26, label %27, label %_ZN8JfrEventI14EventClassLoadE8evaluateEv.exit.i.i

27:                                               ; preds = %23
  %28 = tail call noundef i64 @_ZN33FastUnorderedElapsedCounterSource3nowEv() #14
  store i64 %28, ptr %24, align 8
  %.pre3.i.i.i = load i64, ptr %0, align 8
  br label %_ZN8JfrEventI14EventClassLoadE8evaluateEv.exit.i.i

_ZN8JfrEventI14EventClassLoadE8evaluateEv.exit.i.i: ; preds = %27, %23, %21
  %29 = phi i64 [ %19, %23 ], [ %.pre3.i.i.i, %27 ], [ %22, %21 ]
  %30 = phi i64 [ %25, %23 ], [ %28, %27 ], [ %.pre.i.i.i, %21 ]
  %31 = sub nsw i64 %30, %29
  %32 = load i64, ptr getelementptr inbounds (i8, ptr @_ZN15JfrEventSetting19_jvm_event_settingsE, i64 528), align 8
  %.not2.i.i = icmp slt i64 %31, %32
  br i1 %.not2.i.i, label %_ZN8JfrEventI14EventClassLoadE6commitEv.exit, label %_ZN8JfrEventI14EventClassLoadE12should_writeEv.exit.i

_ZN8JfrEventI14EventClassLoadE12should_writeEv.exit.i: ; preds = %_ZN8JfrEventI14EventClassLoadE8evaluateEv.exit.i.i
  %33 = tail call align 8 ptr @llvm.threadlocal.address.p0(ptr align 8 @_ZN6Thread12_thr_currentE)
  %34 = load ptr, ptr %33, align 8
  %35 = tail call noundef zeroext i1 @_ZN14JfrThreadLocal11is_includedEPK6Thread(ptr noundef %34) #14
  br i1 %35, label %36, label %_ZN8JfrEventI14EventClassLoadE6commitEv.exit

36:                                               ; preds = %_ZN8JfrEventI14EventClassLoadE12should_writeEv.exit.i, %12
  tail call void @_ZN8JfrEventI14EventClassLoadE11write_eventEv(ptr noundef nonnull align 8 dereferenceable(19) %0)
  br label %_ZN8JfrEventI14EventClassLoadE6commitEv.exit

_ZN8JfrEventI14EventClassLoadE6commitEv.exit:     ; preds = %12, %16, %_ZN8JfrEventI14EventClassLoadE8evaluateEv.exit.i.i, %_ZN8JfrEventI14EventClassLoadE12should_writeEv.exit.i, %36
  ret void
}